; Function Attrs: mustprogress nofree norecurse nosync nounwind willreturn memory(read, inaccessiblemem: none) uwtable
define internal noundef zeroext i1 @_ZNK19OpenColorIO_v2_4dev12_GLOBAL__N_120GradingRGBCurveOpCPU9isDynamicEv(ptr nocapture noundef nonnull readonly align 8 dereferenceable(24) %this) unnamed_addr #11 align 2 {
entry:
  %m_grgbcurve = getelementptr inbounds i8, ptr %this, i64 8
  %0 = load ptr, ptr %m_grgbcurve, align 8
  %m_isDynamic.i = getelementptr inbounds i8, ptr %0, i64 12
  %1 = load i8, ptr %m_isDynamic.i, align 4
  %2 = and i8 %1, 1
  %tobool.i = icmp ne i8 %2, 0
  ret i1 %tobool.i
}